Certificate:
    Data:
        Version: 3 (0x2)
        Serial Number: 1 (0x1)
    Signature Algorithm: md5WithRSAEncryption
        Issuer: C=FR, ST=Radius, L=Somewhere, O=Example Inc./emailAddress=admin@example.com, CN=Example Certificate Authority
        Validity
            Not Before: Sep 15 02:44:46 2017 GMT
            Not After : Sep 15 02:44:46 2018 GMT
        Subject: C=FR, ST=Radius, O=Example Inc., CN=Example Server Certificate/emailAddress=admin@example.com
        Subject Public Key Info:
            Public Key Algorithm: rsaEncryption
                Public-Key: (2048 bit)
                Modulus:
                    00:aa:ed:54:dc:3f:6d:44:40:26:36:a0:36:a8:77:
                    1c:02:a5:4c:b8:69:79:95:42:53:a9:38:a2:bc:51:
                    9f:6e:47:ab:55:f8:94:28:4c:17:81:17:2f:02:3a:
                    7d:94:fb:4e:b9:c8:87:23:f8:68:85:a1:52:03:75:
                    fb:cb:76:1a:04:64:62:c9:88:a0:19:df:46:4c:07:
                    5b:9d:e3:6b:88:ff:7b:e6:99:67:d3:b7:ff:f7:9d:
                    62:34:dc:fe:b8:29:45:ea:c2:d5:b7:62:13:90:81:
                    13:0e:9e:30:6e:e5:4d:22:a5:1a:a5:9d:c2:b7:91:
                    33:80:eb:9b:2e:6d:d8:77:75:f6:51:bb:a6:6d:ba:
                    61:72:e7:f3:46:f3:5f:a2:29:da:a1:e8:e6:ae:21:
                    09:28:ec:f3:62:70:42:80:d4:3d:f7:63:f4:1f:84:
                    60:cb:ca:b5:01:32:ea:1d:8b:bb:e5:58:9e:69:84:
                    0a:1a:75:89:26:9c:a5:71:db:a8:77:00:79:5d:d4:
                    7d:1c:a6:dd:7e:06:36:6b:7f:a9:5a:7c:e9:6b:bc:
                    fc:cd:58:03:54:ca:30:23:66:b4:c1:2b:39:d6:c7:
                    68:43:12:04:79:59:ad:16:48:c2:c3:94:67:56:44:
                    0e:b4:c6:29:05:6a:3f:7a:3d:81:98:86:45:5c:53:
                    90:23
                Exponent: 65537 (0x10001)
        X509v3 extensions:
            X509v3 Extended Key Usage: 
                TLS Web Server Authentication
    Signature Algorithm: md5WithRSAEncryption
         93:c3:3b:04:3f:2f:a4:d0:3e:05:4d:8b:2a:3b:75:97:7c:49:
         e0:69:e2:2b:4b:a0:ad:c7:b4:67:1b:47:c3:d7:d4:13:60:e3:
         02:0a:cf:c8:27:a5:a2:96:8f:18:43:16:f5:02:ed:af:ed:b7:
         e6:67:30:dd:28:08:09:3b:90:18:a6:34:16:3a:5a:10:76:5d:
         a1:b8:52:84:69:39:cc:76:f2:72:90:8c:57:2f:36:5b:99:55:
         01:83:16:20:63:67:12:87:a0:78:3e:1e:4a:e7:bf:5a:01:de:
         ad:ae:51:55:cc:6b:2e:e4:32:ea:ae:a1:71:33:f5:ea:58:c3:
         89:b6:84:a9:9d:ae:ce:f4:42:6a:c5:f6:a8:2f:7d:8c:3d:e9:
         99:f7:0a:fc:c4:c4:c3:3b:b9:ad:cb:0d:30:87:05:96:c7:e7:
         bb:78:fd:43:11:a1:fe:8e:87:4b:1a:f1:38:bc:1b:28:0f:82:
         e7:63:5c:c8:0d:52:b6:dd:da:32:b1:b4:f8:5d:95:b2:cf:37:
         1c:2a:2c:43:c5:52:9a:5d:74:25:76:a0:55:e0:be:81:5d:31:
         57:8e:e5:6e:05:19:5b:a7:db:d1:ee:66:39:e4:da:42:e4:08:
         a5:22:70:97:1c:68:21:2d:d7:7e:10:a4:76:08:99:57:c2:0d:
         fc:94:1e:17
-----BEGIN CERTIFICATE-----
MIIDojCCAoqgAwIBAgIBATANBgkqhkiG9w0BAQQFADCBkzELMAkGA1UEBhMCRlIx
DzANBgNVBAgMBlJhZGl1czESMBAGA1UEBwwJU29tZXdoZXJlMRUwEwYDVQQKDAxF
eGFtcGxlIEluYy4xIDAeBgkqhkiG9w0BCQEWEWFkbWluQGV4YW1wbGUuY29tMSYw
JAYDVQQDDB1FeGFtcGxlIENlcnRpZmljYXRlIEF1dGhvcml0eTAeFw0xNzA5MTUw
MjQ0NDZaFw0xODA5MTUwMjQ0NDZaMHwxCzAJBgNVBAYTAkZSMQ8wDQYDVQQIDAZS
YWRpdXMxFTATBgNVBAoMDEV4YW1wbGUgSW5jLjEjMCEGA1UEAwwaRXhhbXBsZSBT
ZXJ2ZXIgQ2VydGlmaWNhdGUxIDAeBgkqhkiG9w0BCQEWEWFkbWluQGV4YW1wbGUu
Y29tMIIBIjANBgkqhkiG9w0BAQEFAAOCAQ8AMIIBCgKCAQEAqu1U3D9tREAmNqA2
qHccAqVMuGl5lUJTqTiivFGfbkerVfiUKEwXgRcvAjp9lPtOuciHI/hohaFSA3X7
y3YaBGRiyYigGd9GTAdbneNriP975pln07f/951iNNz+uClF6sLVt2ITkIETDp4w
buVNIqUapZ3Ct5EzgOubLm3Yd3X2UbumbbphcufzRvNfoinaoejmriEJKOzzYnBC
gNQ992P0H4Rgy8q1ATLqHYu75VieaYQKGnWJJpylcduodwB5XdR9HKbdfgY2a3+p
Wnzpa7z8zVgDVMowI2a0wSs51sdoQxIEeVmtFkjCw5RnVkQOtMYpBWo/ej2BmIZF
XFOQIwIDAQABoxcwFTATBgNVHSUEDDAKBggrBgEFBQcDATANBgkqhkiG9w0BAQQF
AAOCAQEAk8M7BD8vpNA+BU2LKjt1l3xJ4GniK0ugrce0ZxtHw9fUE2DjAgrPyCel
opaPGEMW9QLtr+235mcw3SgICTuQGKY0FjpaEHZdobhShGk5zHbycpCMVy82W5lV
AYMWIGNnEoegeD4eSue/WgHera5RVcxrLuQy6q6hcTP16ljDibaEqZ2uzvRCasX2
qC99jD3pmfcK/MTEwzu5rcsNMIcFlsfnu3j9QxGh/o6HSxrxOLwbKA+C52NcyA1S
tt3aMrG0+F2Vss83HCosQ8VSml10JXagVeC+gV0xV47lbgUZW6fb0e5mOeTaQuQI
pSJwlxxoIS3XfhCkdgiZV8IN/JQeFw==
-----END CERTIFICATE-----
